(lp0
Vf135226447
p1
aVv287919256
p2
aVl185022877
p3
aVv354887441
p4
aVk171125544
p5
aVt314009217
p6
aVw101140587
p7
aVf131739832
p8
aVk163619366
p9
aVw100006647
p10
aVk176079445
p11
aVb121136824
p12
aVd151130449
p13
aVb155845398
p14
aVm112437626
p15
aVw100621296
p16
aVs376412022
p17
aVj290978591
p18
aVu64728568
p19
aVh186797526
p20
aVh186984507
p21
aVw62799981
p22
aVm123687125
p23
aVw100006513
p24
aVw99617876
p25
aVm119205888
p26
aVd153819845
p27
aVr99270260
p28
aVw98373390
p29
aVb158176715
p30
aVl228428918
p31
aVe148666431
p32
aVw100911521
p33
aVh186829043
p34
aVf132980202
p35
aVn135381084
p36
aVj290978589
p37
aVr105835410
p38
aVn126611743
p39
aVm124092451
p40
a.