(lp0
Vs350392100
p1
aVt218944897
p2
aVc328754911
p3
aVs234012093
p4
aVt210726505
p5
aVc272473882
p6
aVw100454408
p7
aVw100455004
p8
aVg134549923
p9
aVv354887459
p10
aVh184136204
p11
aVf138861053
p12
aVd152024524
p13
aVt314009211
p14
aV183285023
p15
aVb140182819
p16
aVm105942403
p17
aVt218944893
p18
aVx175110274
p19
aVg129734448
p20
aVr56192488
p21
aVl140010484
p22
aVc293868779
p23
aVd148753751
p24
aVw101343973
p25
aVt218944899
p26
aVl244135939
p27
aVc293868775
p28
aVq8364870
p29
aVt314009213
p30
aVl196689477
p31
aVq8364778
p32
aVo6095868
p33
aVq8364742
p34
aVq8364782
p35
aVs223203498
p36
aVk161830522
p37
aVg138162969
p38
aVc335858052
p39
aVw99185424
p40
a.