(lp0
Ve137853940
p1
aVr111975910
p2
aVb155160394
p3
aVh187196170
p4
aVw98846868
p5
aVh186622560
p6
aVr105792579
p7
aVu61330630
p8
aVu57899613
p9
aVg137756759
p10
aVn134625446
p11
aVw98750024
p12
aVh186628038
p13
aVh186241868
p14
aVr112428431
p15
aVf132966496
p16
aVw98829222
p17
aVw99124417
p18
aVg133357919
p19
aVf132966068
p20
aVn134659812
p21
aVn134659426
p22
aVu63409648
p23
aVw97701220
p24
aVc373116436
p25
aVv342347957
p26
aVl194442140
p27
aVl220018108
p28
aVj214918618
p29
aVp330674856
p30
aVc442313173
p31
aVv332407648
p32
aVt339885021
p33
aVt303194298
p34
aVj227957937
p35
aVs363107553
p36
aVp362170718
p37
aVc452359653
p38
aVb158271859
p39
aVd147353833
p40
a.