(lp0
Vn115603058
p1
aVg138103609
p2
aVd152045856
p3
aVg137694011
p4
aVh184064453
p5
aVn131929948
p6
aVq19121833
p7
aVq19121835
p8
aVl244541101
p9
aVq19121831
p10
aVh179400763
p11
aVp399556177
p12
aVg132600498
p13
aVr112768755
p14
aVs377073794
p15
aVf133496924
p16
aVg131751898
p17
aVn135324394
p18
aVn129866495
p19
aVc328754815
p20
aVl79956668
p21
aVl162109513
p22
aVl79956670
p23
aVv274006917
p24
aVq8364718
p25
aVq8364864
p26
aVq8364722
p27
aVh186431441
p28
aVm113033966
p29
aVj206787164
p30
aVr113081609
p31
aVj256561031
p32
aVj290978577
p33
aVk157898045
p34
aVb137803936
p35
aVj256561039
p36
aVd150680900
p37
aVu45597603
p38
aVx113650620
p39
aVv297461200
p40
a.