(lp0
Vs374816583
p1
aVt350324212
p2
aVl154447911
p3
aVw99159297
p4
aVm118788726
p5
aVf132978020
p6
aVt370464689
p7
aVw99906046
p8
aVt370464711
p9
aVt370464697
p10
aVt370464687
p11
aVt370464707
p12
aVt370464719
p13
aVt370464695
p14
aVh186827731
p15
aVt370464691
p16
aVs328806590
p17
aVm119428964
p18
aVf137609159
p19
aVf138401697
p20
aV175846604
p21
aVb158205425
p22
aVt323770757
p23
aVj267807953
p24
aVx311457776
p25
aVv343010342
p26
aVc453522305
p27
aVc453522301
p28
aVn129838319
p29
aVh179707955
p30
aVc453522311
p31
aVn135127776
p32
aVc432108842
p33
aVc443230941
p34
aVo6095904
p35
aVl154447913
p36
aVl140009860
p37
aVw101372977
p38
aVl140009862
p39
aVl154447907
p40
aVc453522279
p41
aVe142074757
p42
aVb155972318
p43
aVh183035833
p44
aVk176517843
p45
aVe137183900
p46
aV175122416
p47
aVt360129504
p48
aVc389026674
p49
aVs328806588
p50
aVx309584412
p51
aVx340814305
p52
aVm122650745
p53
aVl240540001
p54
aVt323770775
p55
aVr110370143
p56
aVs387873673
p57
aVc453522309
p58
aVb153930050
p59
aVg135128849
p60
aVu64553729
p61
aVv340440256
p62
aVt291752802
p63
aVh184643227
p64
aVg132411928
p65
aVw98827817
p66
aVc385681142
p67
aVc453522291
p68
aVp374363551
p69
aVp369755322
p70
aVr113184320
p71
aVs329957432
p72
aVj268084085
p73
aVx310195948
p74
aVc453522277
p75
aVr113293573
p76
aVt360129514
p77
aVc453522299
p78
aVc385681138
p79
aVx292938659
p80
aVc453522281
p81
aVd144486468
p82
aVf138769927
p83
aVp367684926
p84
aVg74993616
p85
aVl140009858
p86
aVb155367307
p87
aVp352567065
p88
aVc385681158
p89
aVx294295254
p90
aVj229458002
p91
aVt323770759
p92
aVp386352749
p93
aVs329957488
p94
aVj259265032
p95
aVl194763800
p96
aVt360339612
p97
aVt362629047
p98
aVx288882674
p99
aVj229458006
p100
aVs329957412
p101
aVc385681154
p102
aVt335571609
p103
aVj229457998
p104
aVj277088285
p105
aVc421445870
p106
aVx292657599
p107
aVl194763802
p108
aVg132338744
p109
aVj229458014
p110
aVp394430841
p111
aVx297903009
p112
aVx341148935
p113
aVs356626218
p114
aVp356400431
p115
aVc436295881
p116
aV183236363
p117
aVx292938665
p118
aVc368369260
p119
aV180530637
p120
aVc378685057
p121
aVs343233884
p122
aVt350324174
p123
aVp393741602
p124
aV177803783
p125
aVt360327083
p126
aVt360327089
p127
aVr110829815
p128
aVb139317319
p129
aVj278283514
p130
aVw79332086
p131
aVc452560567
p132
aVp393741592
p133
aV159260258
p134
aVk153399236
p135
aVb157952233
p136
aVc452270217
p137
aVb157828301
p138
aVb155622186
p139
aVt360129596
p140
aVq7291591
p141
aVq7291583
p142
aVq7291579
p143
aVq7291575
p144
aVq7291567
p145
aVc378685049
p146
aVw101247050
p147
aVv280732752
p148
aVt360129590
p149
aVc429480894
p150
aV171915206
p151
aVb158244007
p152
aVw99696792
p153
aVj287225219
p154
aVj287225213
p155
aVj287225209
p156
aVd150103472
p157
aVp373516284
p158
aVp373516282
p159
aVp373516280
p160
aVp373516278
p161
aVp373516270
p162
aVb155991542
p163
aVs376715816
p164
aVk171239668
p165
aVe147035069
p166
aVr107942618
p167
aVj277972964
p168
aVk173964699
p169
aVt313290375
p170
aVc338270346
p171
aVj211793804
p172
aVt285122013
p173
aVx326992883
p174
aV180874497
p175
aVs376420050
p176
aVt240778456
p177
aVh184384898
p178
aVb157637903
p179
aVt360327081
p180
aVx248035604
p181
aVc399964287
p182
aVt350324142
p183
aVs298602154
p184
aVt360327079
p185
aVl154447915
p186
aVs298602192
p187
aVk170614772
p188
aV176860780
p189
aVx330499950
p190
aVn135026856
p191
aVe146299921
p192
aVj290978643
p193
aVm119343286
p194
aVn134214358
p195
aVn126492108
p196
aVw100718037
p197
aVf138795981
p198
aVt291752796
p199
aVw100143895
p200
aVl218347194
p201
aVx318459170
p202
aVt346412062
p203
aVp382884290
p204
aVv342125677
p205
aVs372586941
p206
aVx320295948
p207
aVl235888047
p208
aVk176401575
p209
aVe142720879
p210
aVd153955689
p211
aVk171002622
p212
aVm119343468
p213
aVo35300021
p214
aVw100718795
p215
aVt300092623
p216
aVb156026914
p217
aVf139226081
p218
aVl229860250
p219
aVm118992684
p220
aVm119136802
p221
aVv339817422
p222
aVv339817642
p223
aVv339817628
p224
aVo33099287
p225
aVv339817648
p226
aVo33099285
p227
aVo33099321
p228
aVo33099347
p229
aVo33099353
p230
aVo33099331
p231
aVo33099349
p232
aVo33099291
p233
aVs384344807
p234
aVv339817368
p235
aVv339817522
p236
aVm116034018
p237
aV123602969
p238
aVk143175783
p239
aVh155186183
p240
aVk145779005
p241
aVr82613695
p242
aVh129876770
p243
aVm93807428
p244
aVn117789508
p245
aVg112341311
p246
aVj268141348
p247
aVt291752810
p248
aVq12917122
p249
aVu37258269
p250
aVr106814328
p251
aVg120413209
p252
aV152459254
p253
aVn130606122
p254
aVx292938661
p255
aVt342978714
p256
aVx292938649
p257
aVp352567037
p258
aVj284199227
p259
aVk166378446
p260
aVp395737873
p261
aVj229458004
p262
aVp388682097
p263
aVb152467072
p264
aVt315643974
p265
aVt360327121
p266
aVt350324128
p267
aVt360327137
p268
aVt350324172
p269
aVt350324136
p270
aVs298602134
p271
aVc430655024
p272
aVs332860127
p273
aVs298602200
p274
aVj229458016
p275
aVt360327119
p276
aVt360327085
p277
aVt350324140
p278
aVc406568992
p279
aVp323240137
p280
aVt350324132
p281
aVt350324122
p282
aVt360327129
p283
aVj266401414
p284
aVt350324220
p285
aVt350324126
p286
aVv272463330
p287
aVt360327125
p288
aVt350324130
p289
aVj268264027
p290
aVj206211293
p291
aVc368369498
p292
aVs320574873
p293
aVc378685105
p294
aVc378685053
p295
aVt360327123
p296
aVs299839588
p297
aVs305478760
p298
aVs298602198
p299
aVc437925251
p300
a.