(lp0
Vs350392100
p1
aVt218944897
p2
aVc328754911
p3
aVs234012093
p4
aVt210726505
p5
aVc272473882
p6
aVw100454408
p7
aVw100455004
p8
aVg134549923
p9
aVv354887459
p10
aVh184136204
p11
aVf138861053
p12
aVd152024524
p13
aVt314009211
p14
aV183285023
p15
aVb140182819
p16
aVm105942403
p17
aVt218944893
p18
aVx175110274
p19
aVg129734448
p20
aVr56192488
p21
aVl140010484
p22
aVc293868779
p23
aVd148753751
p24
aVw101343973
p25
aVt218944899
p26
aVl244135939
p27
aVc293868775
p28
aVq8364870
p29
aVt314009213
p30
aVl196689477
p31
aVq8364778
p32
aVo6095868
p33
aVq8364742
p34
aVq8364782
p35
aVs223203498
p36
aVk161830522
p37
aVg138162969
p38
aVc335858052
p39
aVw99185424
p40
aVv342463324
p41
aVr113057010
p42
aVs340451153
p43
aVh187508161
p44
aVt291752608
p45
aV178037302
p46
aVx340845849
p47
aVj128926150
p48
aVd112002442
p49
aVg137874301
p50
aVg132529534
p51
aVw100202199
p52
aVj290978607
p53
aVv320237769
p54
aVg74548770
p55
aVf133603070
p56
aVj135741927
p57
aVj135741929
p58
aVe127608264
p59
aVc293868781
p60
aVt340438122
p61
aVo6095872
p62
aVh184059579
p63
aVp348419010
p64
aVw39519273
p65
aVm124170291
p66
aVw100104890
p67
aVf138222209
p68
aVr113071748
p69
aVw100851980
p70
aVm124058513
p71
aVn128270831
p72
aVh164334886
p73
aVr90000472
p74
aVv354929025
p75
aVx331149466
p76
aVf127534044
p77
aV178768981
p78
aVu65223965
p79
aVh177787578
p80
aVe140300763
p81
aVd144589327
p82
aVw101391825
p83
aVf133305642
p84
aVp399564299
p85
aVs388861475
p86
aVd143980026
p87
aVm124084905
p88
aVw91317186
p89
aVm120639957
p90
aVx330169196
p91
aVx330169192
p92
aVx330169204
p93
aVw99567780
p94
aVx330169200
p95
aVr113021594
p96
aVg119850742
p97
aVx330169202
p98
aVg138047517
p99
aVx330169194
p100
aVk171267660
p101
aVn111698463
p102
aVp388132794
p103
aVp388132786
p104
aVt368678135
p105
aVt368678133
p106
aVh168278626
p107
aVw100952626
p108
aVr113197914
p109
aVu59570879
p110
aVt369668843
p111
aVf133867802
p112
aVw100947205
p113
aVw100696064
p114
aVr53081181
p115
aVk109083914
p116
aVk114598539
p117
aVw100941845
p118
aVf72460238
p119
aVb158372989
p120
aVv354681399
p121
aVr113337391
p122
aVf139075133
p123
aVo35930332
p124
aVl124942210
p125
aVr113282435
p126
aVx321755884
p127
aVj242322634
p128
aVl174123857
p129
aVw95180452
p130
aVv300814491
p131
aVr113243260
p132
aVn129865469
p133
aVx257067099
p134
aV182843319
p135
aVx338048777
p136
aVn129822103
p137
aVh178145671
p138
aVp399115575
p139
aVk170955420
p140
aVp388132788
p141
aV183361647
p142
aVm123428411
p143
aVl229860314
p144
aVk143136426
p145
aVd148694352
p146
aVg131398180
p147
aVd154187193
p148
aVg136737551
p149
aVb155666250
p150
aV183313779
p151
aVw100072715
p152
aVn134005404
p153
aVh187558355
p154
aVp247247159
p155
aVn127945747
p156
aVk176590315
p157
aVe144047029
p158
aVw99247034
p159
aVt369888389
p160
aVr73825280
p161
aVk175908329
p162
aVd152021690
p163
aV139355526
p164
aVw98393494
p165
aVl229860398
p166
aVw99248038
p167
aVb156012776
p168
aVt369888387
p169
aVd151713836
p170
aVd150666430
p171
aVw97700689
p172
aVw97418388
p173
aVr107766773
p174
aVw91745820
p175
aV178047260
p176
aVq19121821
p177
aVm118840765
p178
aVd133352661
p179
aV177424142
p180
aVd150806710
p181
aVu64285655
p182
aV174761906
p183
aVn107795779
p184
aVn99192008
p185
aVk173058495
p186
aVd116203631
p187
aVw59820287
p188
aVf95771546
p189
aVg94907112
p190
aVt291752602
p191
aV175265994
p192
aVw100647040
p193
aVe146454687
p194
aVn135374008
p195
aVx341072141
p196
aVf133353908
p197
aVh186322077
p198
aVg134376801
p199
aVh185852771
p200
aVu55682817
p201
aVk171079760
p202
aVn133717468
p203
aVv339817672
p204
aVj287796505
p205
aVn106715608
p206
aVv339817682
p207
aVw40754893
p208
aVd95626288
p209
aVu11059120
p210
aVh167069714
p211
aVh126196748
p212
aVk166661100
p213
aVh49653065
p214
aVw7265771
p215
aVn125758208
p216
aVu10722935
p217
aVb140525947
p218
aVq17943065
p219
aVv339817376
p220
aVq17943063
p221
aVj290978605
p222
aVn111482923
p223
aVg132324242
p224
aVd148631720
p225
aVm112100072
p226
aVu55135408
p227
aVu55135420
p228
aVw90349127
p229
aVf126302888
p230
aVd144705862
p231
aVj290978603
p232
aVr96641561
p233
aV114238984
p234
aVn118768498
p235
aVt291752618
p236
aVr94212254
p237
aVe95249690
p238
aVk111943013
p239
aVg73959851
p240
aVg73960167
p241
aVg75508289
p242
aVd91821099
p243
aVb106648253
p244
aVm102842677
p245
aVf113680781
p246
aV152699704
p247
aVp388132784
p248
aVl222039087
p249
aVs385267195
p250
aVl228689008
p251
aVp359977304
p252
aVl202163874
p253
aVj288848813
p254
aVm116030982
p255
aVf133678104
p256
aVr112391244
p257
aVf118944653
p258
aVf122713738
p259
aVk171148772
p260
aVd150656061
p261
aVp399278027
p262
aV151622463
p263
aVb149270796
p264
aVm93914696
p265
aV169428211
p266
aVe135638853
p267
aVk156845846
p268
aVu54179647
p269
aVd143983459
p270
aVt291752612
p271
aVu45888666
p272
aVd150628550
p273
aVp214853732
p274
aVp214853730
p275
aVv284043187
p276
aVc359811578
p277
aVw101137126
p278
aVg133046429
p279
aVw99724970
p280
aVw99724894
p281
aVc359811582
p282
aVx264889565
p283
aVc408363102
p284
aVj267395295
p285
aV183330737
p286
aVv333146691
p287
aVj201036560
p288
aVx264889561
p289
aVo36393639
p290
aVo36393627
p291
aVj201036562
p292
aVv284043185
p293
aV178008402
p294
aVo36393621
p295
aVo36393629
p296
aVo36393643
p297
aVo36393641
p298
aVo36393633
p299
aVo36393631
p300
a.