(lp0
Vg130123182
p1
aVh183231780
p2
aVn131284466
p3
aVe141759350
p4
aVf135226447
p5
aVv287919256
p6
aVl185022877
p7
aVv354887441
p8
aVk171125544
p9
aVt314009217
p10
aVw101140587
p11
aVf131739832
p12
aVk163619366
p13
aVw100006647
p14
aVk176079445
p15
aVb121136824
p16
aVd151130449
p17
aVb155845398
p18
aVm112437626
p19
aVw100621296
p20
aVs376412022
p21
aVj290978591
p22
aVu64728568
p23
aVh186797526
p24
aVh186984507
p25
aVw62799981
p26
aVm123687125
p27
aVw100006513
p28
aVw99617876
p29
aVm119205888
p30
aVd153819845
p31
aVr99270260
p32
aVw98373390
p33
aVb158176715
p34
aVl228428918
p35
aVe148666431
p36
aVw100911521
p37
aVh186829043
p38
aVf132980202
p39
aVn135381084
p40
aVj290978589
p41
aVr105835410
p42
aVn126611743
p43
aVm124092451
p44
aVc328754893
p45
aVp240052497
p46
aVu64639700
p47
aVp234502106
p48
aVk176432929
p49
aVm119418606
p50
aVb157744597
p51
aVh185501258
p52
aVk169353654
p53
aVw100645654
p54
aVk171245270
p55
aVw101055957
p56
aV160159594
p57
aVt314009221
p58
aVc272472480
p59
aVd135946579
p60
aVs388297707
p61
aVj142730815
p62
aVe96409705
p63
aVf139117285
p64
aVs213638966
p65
aVl196689461
p66
aVb157964869
p67
aVc303440549
p68
aVf139100061
p69
aVl105867454
p70
aVt314009227
p71
aVc328754897
p72
aVc272487752
p73
aVc328754885
p74
aVd154027111
p75
aVt218950853
p76
aVc303440141
p77
aVt314009215
p78
aVu58302596
p79
aVt218950855
p80
aVc335858048
p81
aVc303440147
p82
aVn129726209
p83
aVc295404507
p84
aVc328754875
p85
aVc328754881
p86
aVt314009219
p87
aVc303440551
p88
aVs213638964
p89
aVt360129656
p90
aVt291752592
p91
aVm113775344
p92
aVe140126462
p93
aVd151777254
p94
aVg137877925
p95
aVt360129652
p96
aVm122753435
p97
aVg137871899
p98
aVd150816376
p99
aVe124687349
p100
aVd146407576
p101
aVm118571086
p102
aVd153819361
p103
aVm119205268
p104
aVw100327615
p105
aVf139330289
p106
aVg137727417
p107
aVg132138978
p108
aVg134384315
p109
aVw100735579
p110
aVw101085974
p111
aVh187427628
p112
aVw97106086
p113
aVw101180885
p114
aVb155882592
p115
aVg138019221
p116
aVb157908371
p117
aVk171130922
p118
aVh187322050
p119
aVh187403602
p120
aVw101102338
p121
aVo36460548
p122
aVd154083199
p123
aVw98571110
p124
aVr111681329
p125
aVs356232355
p126
aVw100118348
p127
aVt360129658
p128
aVw101236427
p129
aVk176411173
p130
aVg132358078
p131
aVm119423580
p132
aVb155847686
p133
aVb99909785
p134
aVm65430644
p135
aVt359954032
p136
aVj186063963
p137
aVf132588704
p138
aVk158280425
p139
aVg80332046
p140
aVn121405763
p141
aVd92911070
p142
aVv340767945
p143
aVr94815606
p144
aVc328754889
p145
aVf133823062
p146
aVq8364746
p147
aVq8364748
p148
aVr112971532
p149
aVq8364752
p150
aVo6095878
p151
aVs387975179
p152
aVk158250487
p153
aVw100773214
p154
aVo36512514
p155
aVf132757848
p156
aVt360393812
p157
aVh187466562
p158
aVr97031440
p159
aVv354681409
p160
aVw72324711
p161
aVx341072129
p162
aVg132578204
p163
aVb153354361
p164
aVv354268771
p165
aVt360393822
p166
aVt360393802
p167
aVw98386748
p168
aVs387891397
p169
aVr113023110
p170
aVp397256279
p171
aVd138646302
p172
aVh185738343
p173
aVw100613648
p174
aVr112929998
p175
aVr113027514
p176
aVg138047573
p177
aVf139240609
p178
aVb158309847
p179
aVv341095728
p180
aVc431737674
p181
aVw100894995
p182
aVw101164395
p183
aVv341095724
p184
aVd142963440
p185
aVr113030084
p186
aVn135405434
p187
aVt291752586
p188
aVo35640112
p189
aV178088342
p190
aVw101430763
p191
aVh185850178
p192
aVh181354135
p193
aVd154060489
p194
aVn135405452
p195
aVf139177867
p196
aVt360393770
p197
aVo35879930
p198
aVk170865648
p199
aVn129514233
p200
aV183382911
p201
aVn129738381
p202
aVw100816040
p203
aVh187057898
p204
aVx330169096
p205
aVd151803512
p206
aVx330169078
p207
aVs388861453
p208
aVj290978597
p209
aVt360393820
p210
aVx330169092
p211
aVh187058076
p212
aVw101058895
p213
aVs388861451
p214
aVx330169082
p215
aVd154062969
p216
aVh187561233
p217
aVx330169088
p218
aVt360393816
p219
aVk174528653
p220
aVn135348338
p221
aVw101364757
p222
aVw101499055
p223
aVt360393810
p224
aVg138045897
p225
aV178084513
p226
aVu51172011
p227
aVg114550541
p228
aV183330147
p229
aVl185022899
p230
aVg132519520
p231
aVm119457728
p232
aVg132394214
p233
aVf139243423
p234
aVu62446456
p235
aVw100784198
p236
aVd152055046
p237
aVo36306445
p238
aVb158258769
p239
aVt360598314
p240
aVb155816148
p241
aVn129829467
p242
aVv354905185
p243
aVd152037104
p244
aVf133842322
p245
aVo10375183
p246
aVm118690597
p247
aVr106853346
p248
aVt360393814
p249
aVh187590997
p250
aV165581644
p251
aVf120729724
p252
aVb143069542
p253
aVw100919173
p254
aVg138023815
p255
aVu63893552
p256
aVm124178695
p257
aVl229851678
p258
aVb158362361
p259
aVf133699118
p260
aVg138082859
p261
aV165009122
p262
aVr99494598
p263
aVp399936285
p264
aVd153768725
p265
aVr112879535
p266
aVg121080658
p267
aVw100974254
p268
aVr113191868
p269
aVs388704217
p270
aVk170917538
p271
aVd148242346
p272
aVr101622342
p273
aVg137927057
p274
aVw101031687
p275
aVg132435608
p276
aVk176575533
p277
aVh187491511
p278
aVw100952990
p279
aVk176617971
p280
aVk176488559
p281
aVt360393808
p282
aVc453690695
p283
aV183228717
p284
aVt360393818
p285
aVn129812753
p286
aVj290118575
p287
aVw101213345
p288
aVk171301210
p289
aVd154112087
p290
aVm124181727
p291
aVs388169167
p292
aVw101114997
p293
aVr113242513
p294
aVx330650166
p295
aVw100854058
p296
aVs376375136
p297
aVh179417406
p298
aVf133418002
p299
aVp391186722
p300
a.