(lp0
Vn115603058
p1
aVg138103609
p2
aVd152045856
p3
aVg137694011
p4
aVh184064453
p5
aVn131929948
p6
aVq19121833
p7
aVq19121835
p8
aVl244541101
p9
aVq19121831
p10
aVh179400763
p11
aVp399556177
p12
aVg132600498
p13
aVr112768755
p14
aVs377073794
p15
aVf133496924
p16
aVg131751898
p17
aVn135324394
p18
aVn129866495
p19
aVc328754815
p20
aVl79956668
p21
aVl162109513
p22
aVl79956670
p23
aVv274006917
p24
aVq8364718
p25
aVq8364864
p26
aVq8364722
p27
aVh186431441
p28
aVm113033966
p29
aVj206787164
p30
aVr113081609
p31
aVj256561031
p32
aVj290978577
p33
aVk157898045
p34
aVb137803936
p35
aVj256561039
p36
aVd150680900
p37
aVu45597603
p38
aVx113650620
p39
aVv297461200
p40
aVt269823605
p41
aVv333683685
p42
aVx185051973
p43
aVq8364728
p44
aVq8364726
p45
aVo6095936
p46
aVb158145067
p47
aVv354668319
p48
aVe143731357
p49
aVv354668315
p50
aVr113227323
p51
aVv354621581
p52
aVc431737654
p53
aVp399151455
p54
aVs377444292
p55
aVv354668317
p56
aVs377444282
p57
aVn129756833
p58
aVn129226792
p59
aVd147837514
p60
aVk158382525
p61
aVs377444276
p62
aV174139977
p63
aVb156093136
p64
aVw101359103
p65
aVo33489530
p66
aVj277399784
p67
aVg131597956
p68
aVn112584025
p69
aVv354668321
p70
aVs377444288
p71
aVe142283918
p72
aVf139198963
p73
aVg132275794
p74
aVp393877248
p75
aVs377444300
p76
aVj290296931
p77
aVn119836900
p78
aVw100640985
p79
aVs377444296
p80
aVm102323704
p81
aVf122014782
p82
aVh177237106
p83
aVh184183610
p84
aV172883900
p85
aVd135130329
p86
aV171009349
p87
aVw96790080
p88
aVd150649449
p89
aVl219492103
p90
aVv345520199
p91
aVc352277650
p92
aVc355849898
p93
aVj201167703
p94
aVs270111462
p95
aVs308938826
p96
aVw101094436
p97
aVv339667978
p98
aVj252650129
p99
aVe139608820
p100
aVj202102260
p101
aVc377476733
p102
aV183220763
p103
aVp394781383
p104
aVw96575324
p105
aVu64640902
p106
aVf138746033
p107
aVm122613577
p108
aV177241170
p109
aVl229860550
p110
aVw100700504
p111
aVm118097442
p112
aVe148808157
p113
aVd151903622
p114
aVk176401025
p115
aVg132242232
p116
aVd142577320
p117
aVm99075309
p118
aVr87996186
p119
aVg120769343
p120
aV177568724
p121
aVj206787160
p122
aV167319006
p123
aVw98615994
p124
aV161007102
p125
aVb138765010
p126
aVw94244154
p127
aV170674163
p128
aVk132249097
p129
aVj287796531
p130
aVj287796541
p131
aVj287796547
p132
aVv339817366
p133
aVd148833349
p134
aV139076509
p135
aVb111938440
p136
aVr69157717
p137
aVv339817436
p138
aVc427888252
p139
aVs377380698
p140
aVk132248747
p141
aVm116330766
p142
aVm80259757
p143
aVr68876828
p144
aVn134495672
p145
aVe106329940
p146
aV175914964
p147
aVr69159259
p148
aVv339817706
p149
aVs327597060
p150
aVj206787174
p151
aVu65248877
p152
aVh146113201
p153
aVw65157389
p154
aVk143856759
p155
aV130621776
p156
aVu33613138
p157
aVn91817249
p158
aVe108205122
p159
aVh150735717
p160
aVf101170395
p161
aVw59771375
p162
aVr75326571
p163
aVg100468359
p164
aVk133185696
p165
aVe112258595
p166
aVu33709115
p167
aVm81515648
p168
aVh150735677
p169
aVb120442931
p170
aVm81515622
p171
aVh133461246
p172
aVh136459690
p173
aVf112927061
p174
aVf82201307
p175
aVr90050816
p176
aVb123495688
p177
aVh141487540
p178
aVk133646572
p179
aVn97896490
p180
aVw56022145
p181
aVk134707983
p182
aVg106245510
p183
aVm76422728
p184
aVj206787172
p185
aVk130960514
p186
aVm121135623
p187
aVw74819111
p188
aVw74819151
p189
aVg135384823
p190
aVw74819221
p191
aV180431223
p192
aVk130131211
p193
aVh161165826
p194
aV115184781
p195
aVf92989026
p196
aVk44294642
p197
aVg120841927
p198
aVg117779230
p199
aVd121015611
p200
aVj256561035
p201
aVb144149175
p202
aVv333683711
p203
aVj196953368
p204
aVg114800335
p205
aVj196968614
p206
aVm119495750
p207
aVe141743857
p208
aVu52241445
p209
aVe148047029
p210
aVd148634338
p211
aVv343156502
p212
aVj206787170
p213
aVe111526707
p214
aVw99658109
p215
aVd153583543
p216
aVw99657777
p217
aVw99376832
p218
aVu65013242
p219
aVh187010503
p220
aVj206787168
p221
aVb155390712
p222
aVh187010711
p223
aVw99671545
p224
aVd153588223
p225
aVs298284344
p226
aVj201036576
p227
aVp214853696
p228
aVx264889583
p229
aVv284043195
p230
aV167648422
p231
aVe147564089
p232
aVd154176465
p233
aVc408363060
p234
aVv333146649
p235
aVj267395253
p236
aVf133027924
p237
aVc359811590
p238
aVo35966679
p239
aV178141698
p240
aVo35966669
p241
aVb142353292
p242
aVo35966677
p243
aVg138153547
p244
aVj264612068
p245
aVo35329179
p246
aVh183642936
p247
aV180302513
p248
aVj206787166
p249
aVg128718706
p250
aVf139334843
p251
aVj287271137
p252
aVn122018956
p253
aVd151273282
p254
aVw98866347
p255
aVk175658639
p256
aVg137191871
p257
aV177651776
p258
aVw101098385
p259
aVn125955149
p260
aVj274935949
p261
aVw98588190
p262
aVd151275136
p263
aVf131519934
p264
aVt360755152
p265
aVm91010139
p266
aVp394107902
p267
aVj206787162
p268
aVn128605945
p269
aVx322293434
p270
aVx322293432
p271
aVl229241616
p272
aVp389472364
p273
aVb155885036
p274
aVs364077524
p275
aVt283651869
p276
aVw100921053
p277
aVs262155243
p278
aVv353098841
p279
aVv292512815
p280
aVc397343295
p281
aVt368243943
p282
aVs385985273
p283
aVg127583626
p284
aVu57455982
p285
aVb158404421
p286
aVt359861156
p287
aVm119445506
p288
aVv337859051
p289
aVj290978575
p290
aVf136669521
p291
aVt360754618
p292
aVb157455929
p293
aVk176305459
p294
aVf124124450
p295
aVb102708890
p296
aVw100483057
p297
aVk141955086
p298
aVv222994788
p299
aVv222994792
p300
a.