(lp0
Ve137853940
p1
aVr111975910
p2
aVb155160394
p3
aVh187196170
p4
aVw98846868
p5
aVh186622560
p6
aVr105792579
p7
aVu61330630
p8
aVu57899613
p9
aVg137756759
p10
aVn134625446
p11
aVw98750024
p12
aVh186628038
p13
aVh186241868
p14
aVr112428431
p15
aVf132966496
p16
aVw98829222
p17
aVw99124417
p18
aVg133357919
p19
aVf132966068
p20
aVn134659812
p21
aVn134659426
p22
aVu63409648
p23
aVw97701220
p24
aVc373116436
p25
aVv342347957
p26
aVl194442140
p27
aVl220018108
p28
aVj214918618
p29
aVp330674856
p30
aVc442313173
p31
aVv332407648
p32
aVt339885021
p33
aVt303194298
p34
aVj227957937
p35
aVs363107553
p36
aVp362170718
p37
aVc452359653
p38
aVb158271859
p39
aVd147353833
p40
aVl93912557
p41
aVp249474529
p42
aVw101390869
p43
aVl244855919
p44
aVl244855921
p45
aVm118927012
p46
aVl244855925
p47
aVv354887451
p48
aVd150991208
p49
aVl244855913
p50
aV172410062
p51
aVj274985457
p52
aVg132515678
p53
aVh186633462
p54
aVk175208625
p55
aVk175456229
p56
aVk171206932
p57
aVh186244700
p58
aVw98703595
p59
aVr113198059
p60
aVw88967742
p61
aVr111947544
p62
aVg137319675
p63
aVw101305637
p64
aVj290358045
p65
aVc452891341
p66
aVr112228566
p67
aVw95638236
p68
aVc451593483
p69
aVg136911877
p70
aVl207334064
p71
aVg132511586
p72
aVr113188292
p73
aVf129810674
p74
aVw98328311
p75
aVs377038208
p76
aV175993896
p77
aVe145697727
p78
aVl229508544
p79
aVw101026810
p80
aVf138728003
p81
aVg126931108
p82
aVn135500742
p83
aVv354771777
p84
aVp292971733
p85
aV175660020
p86
aVf137066205
p87
aVo36207008
p88
aVj128912326
p89
aVr112801435
p90
aVn135336310
p91
aVp249474503
p92
aVl79959258
p93
aVf133600956
p94
aVw100954097
p95
aVk171086810
p96
aVh186428827
p97
aVl244978813
p98
aVw100791324
p99
aVm118388156
p100
aVl204835513
p101
aVc447464039
p102
aVq5044027
p103
aVt330550653
p104
aVl207429179
p105
aVt339540968
p106
aVp360836109
p107
aVs347172417
p108
aVt339540982
p109
aVc410523418
p110
aVc428932694
p111
aVq19121839
p112
aVl207429171
p113
aVp360836117
p114
aVc416439371
p115
aVv322080150
p116
aVq5044019
p117
aVl207429183
p118
aVx290677760
p119
aVx290677824
p120
aVm123980929
p121
aVb152890021
p122
aV178082332
p123
aVk170547974
p124
aVf139085187
p125
aVw100170725
p126
aVn132826934
p127
aVw79400470
p128
aVh145511728
p129
aVg59978431
p130
aVr112983598
p131
aVw101271761
p132
aVb157733263
p133
aVe143998714
p134
aV175404996
p135
aVk171305658
p136
aVe103500548
p137
aVw100638664
p138
aVf133136678
p139
aVo36460502
p140
aVw89625620
p141
aVl79959256
p142
aVv205818391
p143
aVr51913274
p144
aVq12171626
p145
aVu43485131
p146
aVc404047005
p147
aVl79959254
p148
aVj176869009
p149
aVc335858032
p150
aVv194764918
p151
aVr99126351
p152
aVw100644052
p153
aVf139226731
p154
aVl228437432
p155
aVl228437472
p156
aVl228437486
p157
aVl228437490
p158
aVl228437446
p159
aVx297670310
p160
aVl228437538
p161
aVl228693130
p162
aVl228437418
p163
aVl228437580
p164
aVl228437552
p165
aVl228437436
p166
aVl228437578
p167
aVl228437526
p168
aVl228437508
p169
aVb157137931
p170
aVl228437494
p171
aVs343748295
p172
aVp389641461
p173
aVl228437484
p174
aVl228437584
p175
aVv326449429
p176
aVl228437478
p177
aVl228437426
p178
aVl228437450
p179
aVt314009257
p180
aVl228437564
p181
aVs343748311
p182
aVl228437422
p183
aVl228437544
p184
aVl228437440
p185
aVl228437498
p186
aVl228437468
p187
aVl228437504
p188
aVw101054788
p189
aVl228437560
p190
aVl228437588
p191
aVl228437500
p192
aVl228437480
p193
aVl228437460
p194
aVl228437430
p195
aVl228437530
p196
aVl228437574
p197
aVl228437568
p198
aVl228437570
p199
aVl228437542
p200
aVl228437556
p201
aVl228437520
p202
aVl227359120
p203
aVl228437524
p204
aVl228437444
p205
aVl228437534
p206
aVl228437454
p207
aVl228437458
p208
aVs375612678
p209
aVl228437474
p210
aVl228437512
p211
aVx303222806
p212
aVl228437464
p213
aVl228437548
p214
aVh184268818
p215
aVl79959252
p216
aVl79959266
p217
aVo6095950
p218
aVw100477379
p219
aVx330933204
p220
aVo6095946
p221
aVp249474533
p222
aVs344999532
p223
aVh187455050
p224
aVc303416249
p225
aVt314009261
p226
aVc328754811
p227
aVl93912559
p228
aVw101167310
p229
aVt218920347
p230
aVj128912324
p231
aVc335858036
p232
aVg137307199
p233
aVv205818387
p234
aVl93920879
p235
aVc303416259
p236
aVl244485383
p237
aVw101476259
p238
aVw93529579
p239
aVt314009263
p240
aVk168584442
p241
aVp282529952
p242
aVp391938102
p243
aVo6095952
p244
aVp399199809
p245
aVt314009265
p246
aVh187291273
p247
aVj128912328
p248
aVc303416265
p249
aVj128912330
p250
aVf133462565
p251
aVw98547372
p252
aVk168084006
p253
aVw99167408
p254
aVb158205875
p255
aVw81782240
p256
aVs377038206
p257
aVf139291227
p258
aVe137963070
p259
aV183242917
p260
aVn119467345
p261
aVo36460500
p262
aV183331289
p263
aVr105067607
p264
aV178060364
p265
aVp399199833
p266
aVt360546392
p267
aVl244489253
p268
aVf138814935
p269
aVd146249140
p270
aVd149026760
p271
aVf133701032
p272
aVg132498622
p273
aVl244489273
p274
aVu61751563
p275
aVn124394801
p276
aVw100134990
p277
aVr112133652
p278
aVp399199803
p279
aVf133631958
p280
aVt360546394
p281
aVk171239230
p282
aVm124157901
p283
aVt360546408
p284
aVg137997621
p285
aVw101161200
p286
aVg134176117
p287
aVn128699541
p288
aVm114254020
p289
aVh184977112
p290
aV175962621
p291
aVm124237413
p292
aVh182087192
p293
aVh187154720
p294
aVs387857181
p295
aVn129772623
p296
aVf136638829
p297
aVk172632811
p298
aVq20080729
p299
aVc449661399
p300
a.